target datalayout = "e-m:e-p270:32:32-p271:32:32-p272:64:64-i64:64-i128:128-f80:128-n8:16:32:64-S128"
target triple = "x86_64-pc-linux-gnu"

%struct.SDL_AtomicInt = type { i32 }
%struct.SDL_TemporaryMemory = type { ptr, ptr, ptr }
%struct.SDL_TemporaryMemoryState = type { ptr, ptr }
%struct.SDL_MouseWheelEvent = type { i32, i32, i64, i32, i32, float, float, i32, float, float, i32, i32 }
%struct.anon = type { ptr, i8, %struct.SDL_AtomicInt, i32, ptr, ptr, ptr }
%struct.SDL_EventEntry = type { %union.SDL_Event, ptr, ptr, ptr }
%union.SDL_Event = type { %struct.SDL_MouseWheelEvent, [72 x i8] }

@SDL_sentinel_pending = internal global %struct.SDL_AtomicInt zeroinitializer, align 4
@SDL_temporary_memory = internal global %struct.SDL_AtomicInt zeroinitializer, align 4
@SDL_EventQ = internal global { ptr, i8, [3 x i8], %struct.SDL_AtomicInt, i32, [4 x i8], ptr, ptr, ptr } zeroinitializer, align 8

; Function Attrs: nounwind uwtable
define internal void @SDL_LinkTemporaryMemoryEntry(ptr noundef %0, ptr noundef %1) #0 {
  %3 = alloca ptr, align 8
  %4 = alloca ptr, align 8
  store ptr %0, ptr %3, align 8
  store ptr %1, ptr %4, align 8
  %5 = load ptr, ptr %3, align 8
  %6 = getelementptr inbounds nuw %struct.SDL_TemporaryMemoryState, ptr %5, i32 0, i32 1
  %7 = load ptr, ptr %6, align 8
  %8 = load ptr, ptr %4, align 8
  %9 = getelementptr inbounds nuw %struct.SDL_TemporaryMemory, ptr %8, i32 0, i32 1
  store ptr %7, ptr %9, align 8
  %10 = load ptr, ptr %4, align 8
  %11 = getelementptr inbounds nuw %struct.SDL_TemporaryMemory, ptr %10, i32 0, i32 2
  store ptr null, ptr %11, align 8
  %12 = load ptr, ptr %3, align 8
  %13 = getelementptr inbounds nuw %struct.SDL_TemporaryMemoryState, ptr %12, i32 0, i32 1
  %14 = load ptr, ptr %13, align 8
  %15 = icmp ne ptr %14, null
  br i1 %15, label %16, label %22

16:                                               ; preds = %2
  %17 = load ptr, ptr %4, align 8
  %18 = load ptr, ptr %3, align 8
  %19 = getelementptr inbounds nuw %struct.SDL_TemporaryMemoryState, ptr %18, i32 0, i32 1
  %20 = load ptr, ptr %19, align 8
  %21 = getelementptr inbounds nuw %struct.SDL_TemporaryMemory, ptr %20, i32 0, i32 2
  store ptr %17, ptr %21, align 8
  br label %26

22:                                               ; preds = %2
  %23 = load ptr, ptr %4, align 8
  %24 = load ptr, ptr %3, align 8
  %25 = getelementptr inbounds nuw %struct.SDL_TemporaryMemoryState, ptr %24, i32 0, i32 0
  store ptr %23, ptr %25, align 8
  br label %26

26:                                               ; preds = %22, %16
  %27 = load ptr, ptr %4, align 8
  %28 = load ptr, ptr %3, align 8
  %29 = getelementptr inbounds nuw %struct.SDL_TemporaryMemoryState, ptr %28, i32 0, i32 1
  store ptr %27, ptr %29, align 8
  ret void
}

; Function Attrs: nounwind uwtable
define internal ptr @SDL_GetTemporaryMemoryState(i1 noundef zeroext %0) #0 {
  %2 = alloca ptr, align 8
  %3 = alloca i8, align 1
  %4 = alloca ptr, align 8
  %5 = alloca i32, align 4
  %6 = zext i1 %0 to i8
  store i8 %6, ptr %3, align 1
  call void @llvm.lifetime.start.p0(i64 8, ptr %4) #5
  %7 = call ptr @SDL_GetTLS_REAL(ptr noundef @SDL_temporary_memory)
  store ptr %7, ptr %4, align 8
  %8 = load ptr, ptr %4, align 8
  %9 = icmp ne ptr %8, null
  br i1 %9, label %25, label %10

10:                                               ; preds = %1
  %11 = load i8, ptr %3, align 1, !range !3, !noundef !4
  %12 = trunc i8 %11 to i1
  br i1 %12, label %14, label %13

13:                                               ; preds = %10
  store ptr null, ptr %2, align 8
  store i32 1, ptr %5, align 4
  br label %27

14:                                               ; preds = %10
  %15 = call noalias ptr @SDL_calloc_REAL(i64 noundef 1, i64 noundef 16) #6
  store ptr %15, ptr %4, align 8
  %16 = load ptr, ptr %4, align 8
  %17 = icmp ne ptr %16, null
  br i1 %17, label %19, label %18

18:                                               ; preds = %14
  store ptr null, ptr %2, align 8
  store i32 1, ptr %5, align 4
  br label %27

19:                                               ; preds = %14
  %20 = load ptr, ptr %4, align 8
  %21 = call zeroext i1 @SDL_SetTLS_REAL(ptr noundef @SDL_temporary_memory, ptr noundef %20, ptr noundef @SDL_CleanupTemporaryMemory)
  br i1 %21, label %24, label %22

22:                                               ; preds = %19
  %23 = load ptr, ptr %4, align 8
  call void @SDL_free_REAL(ptr noundef %23)
  store ptr null, ptr %2, align 8
  store i32 1, ptr %5, align 4
  br label %27

24:                                               ; preds = %19
  br label %25

25:                                               ; preds = %24, %1
  %26 = load ptr, ptr %4, align 8
  store ptr %26, ptr %2, align 8
  store i32 1, ptr %5, align 4
  br label %27

27:                                               ; preds = %25, %22, %18, %13
  call void @llvm.lifetime.end.p0(i64 8, ptr %4) #5
  %28 = load ptr, ptr %2, align 8
  ret ptr %28
}

; Function Attrs: nounwind uwtable
define internal void @SDL_TransferTemporaryMemoryFromEvent(ptr noundef %0) #0 {
  %2 = alloca ptr, align 8
  %3 = alloca ptr, align 8
  %4 = alloca ptr, align 8
  %5 = alloca ptr, align 8
  %6 = alloca i32, align 4
  store ptr %0, ptr %2, align 8
  call void @llvm.lifetime.start.p0(i64 8, ptr %3) #5
  call void @llvm.lifetime.start.p0(i64 8, ptr %4) #5
  call void @llvm.lifetime.start.p0(i64 8, ptr %5) #5
  %7 = load ptr, ptr %2, align 8
  %8 = getelementptr inbounds nuw %struct.SDL_EventEntry, ptr %7, i32 0, i32 1
  %9 = load ptr, ptr %8, align 8
  %10 = icmp ne ptr %9, null
  br i1 %10, label %12, label %11

11:                                               ; preds = %1
  store i32 1, ptr %6, align 4
  br label %35

12:                                               ; preds = %1
  %13 = call ptr @SDL_GetTemporaryMemoryState(i1 noundef zeroext true)
  store ptr %13, ptr %3, align 8
  %14 = load ptr, ptr %3, align 8
  %15 = icmp ne ptr %14, null
  br i1 %15, label %17, label %16

16:                                               ; preds = %12
  store i32 1, ptr %6, align 4
  br label %35

17:                                               ; preds = %12
  %18 = load ptr, ptr %2, align 8
  %19 = getelementptr inbounds nuw %struct.SDL_EventEntry, ptr %18, i32 0, i32 1
  %20 = load ptr, ptr %19, align 8
  store ptr %20, ptr %4, align 8
  br label %21

21:                                               ; preds = %30, %17
  %22 = load ptr, ptr %4, align 8
  %23 = icmp ne ptr %22, null
  br i1 %23, label %24, label %32

24:                                               ; preds = %21
  %25 = load ptr, ptr %4, align 8
  %26 = getelementptr inbounds nuw %struct.SDL_TemporaryMemory, ptr %25, i32 0, i32 2
  %27 = load ptr, ptr %26, align 8
  store ptr %27, ptr %5, align 8
  %28 = load ptr, ptr %3, align 8
  %29 = load ptr, ptr %4, align 8
  call void @SDL_LinkTemporaryMemoryEntry(ptr noundef %28, ptr noundef %29)
  br label %30

30:                                               ; preds = %24
  %31 = load ptr, ptr %5, align 8
  store ptr %31, ptr %4, align 8
  br label %21, !llvm.loop !11

32:                                               ; preds = %21
  %33 = load ptr, ptr %2, align 8
  %34 = getelementptr inbounds nuw %struct.SDL_EventEntry, ptr %33, i32 0, i32 1
  store ptr null, ptr %34, align 8
  store i32 0, ptr %6, align 4
  br label %35

35:                                               ; preds = %32, %16, %11
  call void @llvm.lifetime.end.p0(i64 8, ptr %5) #5
  call void @llvm.lifetime.end.p0(i64 8, ptr %4) #5
  call void @llvm.lifetime.end.p0(i64 8, ptr %3) #5
  %36 = load i32, ptr %6, align 4
  switch i32 %36, label %38 [
    i32 0, label %37
    i32 1, label %37
  ]

37:                                               ; preds = %35, %35
  ret void

38:                                               ; preds = %35
  unreachable
}

; Function Attrs: nounwind uwtable
define internal void @SDL_CutEvent(ptr noundef %0) #0 {
  %2 = alloca ptr, align 8
  store ptr %0, ptr %2, align 8
  %3 = load ptr, ptr %2, align 8
  call void @SDL_TransferTemporaryMemoryFromEvent(ptr noundef %3)
  %4 = load ptr, ptr %2, align 8
  %5 = getelementptr inbounds nuw %struct.SDL_EventEntry, ptr %4, i32 0, i32 2
  %6 = load ptr, ptr %5, align 8
  %7 = icmp ne ptr %6, null
  br i1 %7, label %8, label %16

8:                                                ; preds = %1
  %9 = load ptr, ptr %2, align 8
  %10 = getelementptr inbounds nuw %struct.SDL_EventEntry, ptr %9, i32 0, i32 3
  %11 = load ptr, ptr %10, align 8
  %12 = load ptr, ptr %2, align 8
  %13 = getelementptr inbounds nuw %struct.SDL_EventEntry, ptr %12, i32 0, i32 2
  %14 = load ptr, ptr %13, align 8
  %15 = getelementptr inbounds nuw %struct.SDL_EventEntry, ptr %14, i32 0, i32 3
  store ptr %11, ptr %15, align 8
  br label %16

16:                                               ; preds = %8, %1
  %17 = load ptr, ptr %2, align 8
  %18 = getelementptr inbounds nuw %struct.SDL_EventEntry, ptr %17, i32 0, i32 3
  %19 = load ptr, ptr %18, align 8
  %20 = icmp ne ptr %19, null
  br i1 %20, label %21, label %29

21:                                               ; preds = %16
  %22 = load ptr, ptr %2, align 8
  %23 = getelementptr inbounds nuw %struct.SDL_EventEntry, ptr %22, i32 0, i32 2
  %24 = load ptr, ptr %23, align 8
  %25 = load ptr, ptr %2, align 8
  %26 = getelementptr inbounds nuw %struct.SDL_EventEntry, ptr %25, i32 0, i32 3
  %27 = load ptr, ptr %26, align 8
  %28 = getelementptr inbounds nuw %struct.SDL_EventEntry, ptr %27, i32 0, i32 2
  store ptr %24, ptr %28, align 8
  br label %29

29:                                               ; preds = %21, %16
  %30 = load ptr, ptr %2, align 8
  %31 = load ptr, ptr getelementptr inbounds nuw (%struct.anon, ptr @SDL_EventQ, i32 0, i32 4), align 8
  %32 = icmp eq ptr %30, %31
  br i1 %32, label %33, label %39

33:                                               ; preds = %29
  br label %34

34:                                               ; preds = %33
  br label %35

35:                                               ; preds = %34
  %36 = load ptr, ptr %2, align 8
  %37 = getelementptr inbounds nuw %struct.SDL_EventEntry, ptr %36, i32 0, i32 3
  %38 = load ptr, ptr %37, align 8
  store ptr %38, ptr getelementptr inbounds nuw (%struct.anon, ptr @SDL_EventQ, i32 0, i32 4), align 8
  br label %39

39:                                               ; preds = %35, %29
  %40 = load ptr, ptr %2, align 8
  %41 = load ptr, ptr getelementptr inbounds nuw (%struct.anon, ptr @SDL_EventQ, i32 0, i32 5), align 8
  %42 = icmp eq ptr %40, %41
  br i1 %42, label %43, label %49

43:                                               ; preds = %39
  br label %44

44:                                               ; preds = %43
  br label %45

45:                                               ; preds = %44
  %46 = load ptr, ptr %2, align 8
  %47 = getelementptr inbounds nuw %struct.SDL_EventEntry, ptr %46, i32 0, i32 2
  %48 = load ptr, ptr %47, align 8
  store ptr %48, ptr getelementptr inbounds nuw (%struct.anon, ptr @SDL_EventQ, i32 0, i32 5), align 8
  br label %49

49:                                               ; preds = %45, %39
  %50 = load ptr, ptr %2, align 8
  %51 = getelementptr inbounds nuw %struct.SDL_EventEntry, ptr %50, i32 0, i32 0
  %52 = load i32, ptr %51, align 8
  %53 = icmp eq i32 %52, 32512
  br i1 %53, label %54, label %56

54:                                               ; preds = %49
  %55 = call i32 @SDL_AddAtomicInt_REAL(ptr noundef @SDL_sentinel_pending, i32 noundef -1)
  br label %56

56:                                               ; preds = %54, %49
  %57 = load ptr, ptr getelementptr inbounds nuw (%struct.anon, ptr @SDL_EventQ, i32 0, i32 6), align 8
  %58 = load ptr, ptr %2, align 8
  %59 = getelementptr inbounds nuw %struct.SDL_EventEntry, ptr %58, i32 0, i32 3
  store ptr %57, ptr %59, align 8
  %60 = load ptr, ptr %2, align 8
  store ptr %60, ptr getelementptr inbounds nuw (%struct.anon, ptr @SDL_EventQ, i32 0, i32 6), align 8
  br label %61

61:                                               ; preds = %56
  br label %62

62:                                               ; preds = %61
  %63 = call i32 @SDL_AddAtomicInt_REAL(ptr noundef getelementptr inbounds nuw (%struct.anon, ptr @SDL_EventQ, i32 0, i32 2), i32 noundef -1)
  ret void
}