; Function Attrs: nounwind uwtable
define internal fastcc void @SDL_CutEvent(ptr noundef nonnull %0) unnamed_addr #0 {
  %2 = getelementptr inbounds nuw i8, ptr %0, i64 128
  %3 = load ptr, ptr %2, align 8
  %.not.i = icmp eq ptr %3, null
  br i1 %.not.i, label %SDL_TransferTemporaryMemoryFromEvent.exit, label %4

4:                                                ; preds = %1
  %5 = tail call ptr @SDL_GetTLS_REAL(ptr noundef nonnull @SDL_temporary_memory) #8
  %.not.i.i = icmp eq ptr %5, null
  br i1 %.not.i.i, label %6, label %SDL_GetTemporaryMemoryState.exit.i

6:                                                ; preds = %4
  %7 = tail call noalias dereferenceable_or_null(16) ptr @SDL_calloc_REAL(i64 noundef 1, i64 noundef 16) #9
  %.not9.i.i = icmp eq ptr %7, null
  br i1 %.not9.i.i, label %SDL_TransferTemporaryMemoryFromEvent.exit, label %8

8:                                                ; preds = %6
  %9 = tail call zeroext i1 @SDL_SetTLS_REAL(ptr noundef nonnull @SDL_temporary_memory, ptr noundef nonnull %7, ptr noundef nonnull @SDL_CleanupTemporaryMemory) #8
  br i1 %9, label %SDL_GetTemporaryMemoryState.exit.i, label %10

10:                                               ; preds = %8
  tail call void @SDL_free_REAL(ptr noundef nonnull %7) #8
  br label %SDL_TransferTemporaryMemoryFromEvent.exit

SDL_GetTemporaryMemoryState.exit.i:               ; preds = %8, %4
  %.06.i.i = phi ptr [ %5, %4 ], [ %7, %8 ]
  %11 = load ptr, ptr %2, align 8
  %.not1115.i = icmp eq ptr %11, null
  br i1 %.not1115.i, label %._crit_edge.i, label %.lr.ph.i

.lr.ph.i:                                         ; preds = %SDL_GetTemporaryMemoryState.exit.i
  %12 = getelementptr inbounds nuw i8, ptr %.06.i.i, i64 8
  %.pre.i = load ptr, ptr %12, align 8
  br label %13

13:                                               ; preds = %SDL_LinkTemporaryMemoryEntry.exit.i, %.lr.ph.i
  %14 = phi ptr [ %.pre.i, %.lr.ph.i ], [ %.016.i, %SDL_LinkTemporaryMemoryEntry.exit.i ]
  %.016.i = phi ptr [ %11, %.lr.ph.i ], [ %16, %SDL_LinkTemporaryMemoryEntry.exit.i ]
  %15 = getelementptr inbounds nuw i8, ptr %.016.i, i64 16
  %16 = load ptr, ptr %15, align 8
  %17 = getelementptr inbounds nuw i8, ptr %.016.i, i64 8
  store ptr %14, ptr %17, align 8
  store ptr null, ptr %15, align 8
  %18 = load ptr, ptr %12, align 8
  %.not.i12.i = icmp eq ptr %18, null
  br i1 %.not.i12.i, label %21, label %19

19:                                               ; preds = %13
  %20 = getelementptr inbounds nuw i8, ptr %18, i64 16
  store ptr %.016.i, ptr %20, align 8
  br label %SDL_LinkTemporaryMemoryEntry.exit.i

21:                                               ; preds = %13
  store ptr %.016.i, ptr %.06.i.i, align 8
  br label %SDL_LinkTemporaryMemoryEntry.exit.i

SDL_LinkTemporaryMemoryEntry.exit.i:              ; preds = %21, %19
  store ptr %.016.i, ptr %12, align 8
  %.not11.i = icmp eq ptr %16, null
  br i1 %.not11.i, label %._crit_edge.i, label %13, !llvm.loop !8

._crit_edge.i:                                    ; preds = %SDL_LinkTemporaryMemoryEntry.exit.i, %SDL_GetTemporaryMemoryState.exit.i
  store ptr null, ptr %2, align 8
  br label %SDL_TransferTemporaryMemoryFromEvent.exit

SDL_TransferTemporaryMemoryFromEvent.exit:        ; preds = %1, %6, %10, %._crit_edge.i
  %22 = getelementptr inbounds nuw i8, ptr %0, i64 136
  %23 = load ptr, ptr %22, align 8
  %.not = icmp eq ptr %23, null
  %.phi.trans.insert = getelementptr inbounds nuw i8, ptr %0, i64 144
  %.pre = load ptr, ptr %.phi.trans.insert, align 8
  br i1 %.not, label %SDL_TransferTemporaryMemoryFromEvent.exit._crit_edge, label %24

24:                                               ; preds = %SDL_TransferTemporaryMemoryFromEvent.exit
  %25 = getelementptr inbounds nuw i8, ptr %23, i64 144
  store ptr %.pre, ptr %25, align 8
  br label %SDL_TransferTemporaryMemoryFromEvent.exit._crit_edge

SDL_TransferTemporaryMemoryFromEvent.exit._crit_edge: ; preds = %SDL_TransferTemporaryMemoryFromEvent.exit, %24
  %26 = getelementptr inbounds nuw i8, ptr %0, i64 144
  %.not15 = icmp eq ptr %.pre, null
  br i1 %.not15, label %30, label %27

27:                                               ; preds = %SDL_TransferTemporaryMemoryFromEvent.exit._crit_edge
  %28 = load ptr, ptr %22, align 8
  %29 = getelementptr inbounds nuw i8, ptr %.pre, i64 136
  store ptr %28, ptr %29, align 8
  br label %30

30:                                               ; preds = %27, %SDL_TransferTemporaryMemoryFromEvent.exit._crit_edge
  %31 = load ptr, ptr getelementptr inbounds nuw (i8, ptr @SDL_EventQ, i64 24), align 8
  %32 = icmp eq ptr %0, %31
  br i1 %32, label %33, label %35

33:                                               ; preds = %30
  %34 = load ptr, ptr %26, align 8
  store ptr %34, ptr getelementptr inbounds nuw (i8, ptr @SDL_EventQ, i64 24), align 8
  br label %35

35:                                               ; preds = %33, %30
  %36 = load ptr, ptr getelementptr inbounds nuw (i8, ptr @SDL_EventQ, i64 32), align 8
  %37 = icmp eq ptr %0, %36
  br i1 %37, label %38, label %40

38:                                               ; preds = %35
  %39 = load ptr, ptr %22, align 8
  store ptr %39, ptr getelementptr inbounds nuw (i8, ptr @SDL_EventQ, i64 32), align 8
  br label %40

40:                                               ; preds = %38, %35
  %41 = load i32, ptr %0, align 8
  %42 = icmp eq i32 %41, 32512
  br i1 %42, label %43, label %45

43:                                               ; preds = %40
  %44 = tail call i32 @SDL_AddAtomicInt_REAL(ptr noundef nonnull @SDL_sentinel_pending, i32 noundef -1) #8
  br label %45

45:                                               ; preds = %43, %40
  %46 = load ptr, ptr getelementptr inbounds nuw (i8, ptr @SDL_EventQ, i64 40), align 8
  store ptr %46, ptr %26, align 8
  store ptr %0, ptr getelementptr inbounds nuw (i8, ptr @SDL_EventQ, i64 40), align 8
  %47 = tail call i32 @SDL_AddAtomicInt_REAL(ptr noundef nonnull getelementptr inbounds nuw (i8, ptr @SDL_EventQ, i64 12), i32 noundef -1) #8
  ret void
}